; Function Attrs: mustprogress nounwind uwtable
define dso_local noundef zeroext i1 @_ZN5vcpkgneERKNS_14SchemedVersionES2_(ptr noundef nonnull align 8 dereferenceable(48) %0, ptr noundef nonnull align 8 dereferenceable(48) %1) local_unnamed_addr #0 personality ptr @__gxx_personality_v0 {
  %3 = load i32, ptr %0, align 8
  %4 = load i32, ptr %1, align 8
  %5 = icmp eq i32 %3, %4
  br i1 %5, label %6, label %_ZN5vcpkgeqERKNS_14SchemedVersionES2_.exit

6:                                                ; preds = %2
  %7 = getelementptr inbounds i8, ptr %0, i64 8
  %8 = getelementptr inbounds i8, ptr %1, i64 8
  %9 = tail call noundef i64 @_ZNKSt7__cxx1112basic_stringIcSt11char_traitsIcESaIcEE4sizeEv(ptr noundef nonnull align 8 dereferenceable(32) %7) #19
  %10 = tail call noundef i64 @_ZNKSt7__cxx1112basic_stringIcSt11char_traitsIcESaIcEE4sizeEv(ptr noundef nonnull align 8 dereferenceable(32) %8) #19
  %11 = icmp eq i64 %9, %10
  br i1 %11, label %12, label %_ZN5vcpkgeqERKNS_7VersionES2_.exit.i

12:                                               ; preds = %6
  %13 = tail call noundef ptr @_ZNKSt7__cxx1112basic_stringIcSt11char_traitsIcESaIcEE4dataEv(ptr noundef nonnull align 8 dereferenceable(32) %7) #19
  %14 = tail call noundef ptr @_ZNKSt7__cxx1112basic_stringIcSt11char_traitsIcESaIcEE4dataEv(ptr noundef nonnull align 8 dereferenceable(32) %8) #19
  %15 = tail call noundef i64 @_ZNKSt7__cxx1112basic_stringIcSt11char_traitsIcESaIcEE4sizeEv(ptr noundef nonnull align 8 dereferenceable(32) %7) #19
  %16 = icmp eq i64 %15, 0
  br i1 %16, label %_ZN5vcpkgeqERKNS_7VersionES2_.exit.i, label %17

17:                                               ; preds = %12
  %bcmp.i.i.i = tail call i32 @bcmp(ptr %13, ptr %14, i64 %15)
  %18 = icmp ne i32 %bcmp.i.i.i, 0
  br label %_ZN5vcpkgeqERKNS_7VersionES2_.exit.i

_ZN5vcpkgeqERKNS_7VersionES2_.exit.i:             ; preds = %17, %12, %6
  %not. = phi i1 [ true, %6 ], [ %18, %17 ], [ false, %12 ]
  %19 = getelementptr inbounds i8, ptr %0, i64 40
  %20 = load i32, ptr %19, align 8
  %21 = getelementptr inbounds i8, ptr %1, i64 40
  %22 = load i32, ptr %21, align 8
  %23 = icmp ne i32 %20, %22
  %24 = select i1 %not., i1 true, i1 %23
  br label %_ZN5vcpkgeqERKNS_14SchemedVersionES2_.exit

_ZN5vcpkgeqERKNS_14SchemedVersionES2_.exit:       ; preds = %2, %_ZN5vcpkgeqERKNS_7VersionES2_.exit.i
  %25 = phi i1 [ true, %2 ], [ %24, %_ZN5vcpkgeqERKNS_7VersionES2_.exit.i ]
  ret i1 %25
}